(dp1
S'Adv'
p2
I4
sS'Noun'
p3
I1
sS'Adverb'
p4
I12
sS'Det'
p5
I10
sS'Postp'
p6
I11
sS'Pron'
p7
I5
sS'Ques'
p8
I13
sS'Punc'
p9
I8
sS'***UNKNOWN'
p10
I0
sS'Num'
p11
I9
sS'Adj'
p12
I3
sS'Verb'
p13
I2
sS'Interj'
p14
I7
sS'Conj'
p15
I6
s.